target datalayout = "e-m:e-p270:32:32-p271:32:32-p272:64:64-i64:64-i128:128-f80:128-n8:16:32:64-S128"
target triple = "x86_64-pc-linux-gnu"

@.str.12 = private unnamed_addr constant [2 x i8] c"\0A\00", align 1
@.str.13 = private unnamed_addr constant [14 x i8] c"%s (len=%d): \00", align 1
@.str.14 = private unnamed_addr constant [5 x i8] c"%02X\00", align 1
@.str.65 = private unnamed_addr constant [9 x i8] c"Random:\0A\00", align 1
@.str.66 = private unnamed_addr constant [22 x i8] c"gmt_unix_time=0x%08X\0A\00", align 1
@.str.67 = private unnamed_addr constant [13 x i8] c"random_bytes\00", align 1

; Function Attrs: nounwind uwtable
define internal void @ssl_print_hex(ptr noundef %0, i32 noundef %1, ptr noundef %2, ptr noundef %3, i64 noundef %4) #0 {
  %6 = alloca ptr, align 8
  %7 = alloca i32, align 4
  %8 = alloca ptr, align 8
  %9 = alloca ptr, align 8
  %10 = alloca i64, align 8
  %11 = alloca i64, align 8
  store ptr %0, ptr %6, align 8, !tbaa !15
  store i32 %1, ptr %7, align 4, !tbaa !3
  store ptr %2, ptr %8, align 8, !tbaa !13
  store ptr %3, ptr %9, align 8, !tbaa !13
  store i64 %4, ptr %10, align 8, !tbaa !9
  call void @llvm.lifetime.start.p0(i64 8, ptr %11) #3
  %12 = load ptr, ptr %6, align 8, !tbaa !15
  %13 = load i32, ptr %7, align 4, !tbaa !3
  %14 = call i32 @BIO_indent(ptr noundef %12, i32 noundef %13, i32 noundef 80)
  %15 = load ptr, ptr %6, align 8, !tbaa !15
  %16 = load ptr, ptr %8, align 8, !tbaa !13
  %17 = load i64, ptr %10, align 8, !tbaa !9
  %18 = trunc i64 %17 to i32
  %19 = call i32 (ptr, ptr, ...) @BIO_printf(ptr noundef %15, ptr noundef @.str.13, ptr noundef %16, i32 noundef %18)
  store i64 0, ptr %11, align 8, !tbaa !9
  br label %20

20:                                               ; preds = %32, %5
  %21 = load i64, ptr %11, align 8, !tbaa !9
  %22 = load i64, ptr %10, align 8, !tbaa !9
  %23 = icmp ult i64 %21, %22
  br i1 %23, label %24, label %35

24:                                               ; preds = %20
  %25 = load ptr, ptr %6, align 8, !tbaa !15
  %26 = load ptr, ptr %9, align 8, !tbaa !13
  %27 = load i64, ptr %11, align 8, !tbaa !9
  %28 = getelementptr inbounds nuw i8, ptr %26, i64 %27
  %29 = load i8, ptr %28, align 1, !tbaa !84
  %30 = zext i8 %29 to i32
  %31 = call i32 (ptr, ptr, ...) @BIO_printf(ptr noundef %25, ptr noundef @.str.14, i32 noundef %30)
  br label %32

32:                                               ; preds = %24
  %33 = load i64, ptr %11, align 8, !tbaa !9
  %34 = add i64 %33, 1
  store i64 %34, ptr %11, align 8, !tbaa !9
  br label %20, !llvm.loop !86

35:                                               ; preds = %20
  %36 = load ptr, ptr %6, align 8, !tbaa !15
  %37 = call i32 @BIO_puts(ptr noundef %36, ptr noundef @.str.12)
  call void @llvm.lifetime.end.p0(i64 8, ptr %11) #3
  ret void
}

; Function Attrs: nounwind uwtable
define internal i32 @ssl_print_random(ptr noundef %0, i32 noundef %1, ptr noundef %2, ptr noundef %3) #0 {
  %5 = alloca i32, align 4
  %6 = alloca ptr, align 8
  %7 = alloca i32, align 4
  %8 = alloca ptr, align 8
  %9 = alloca ptr, align 8
  %10 = alloca i32, align 4
  %11 = alloca ptr, align 8
  %12 = alloca i32, align 4
  store ptr %0, ptr %6, align 8, !tbaa !15
  store i32 %1, ptr %7, align 4, !tbaa !3
  store ptr %2, ptr %8, align 8, !tbaa !98
  store ptr %3, ptr %9, align 8, !tbaa !100
  call void @llvm.lifetime.start.p0(i64 4, ptr %10) #3
  call void @llvm.lifetime.start.p0(i64 8, ptr %11) #3
  %13 = load ptr, ptr %8, align 8, !tbaa !98
  %14 = load ptr, ptr %13, align 8, !tbaa !13
  store ptr %14, ptr %11, align 8, !tbaa !13
  %15 = load ptr, ptr %9, align 8, !tbaa !100
  %16 = load i64, ptr %15, align 8, !tbaa !9
  %17 = icmp ult i64 %16, 32
  br i1 %17, label %18, label %19

18:                                               ; preds = %4
  store i32 0, ptr %5, align 4
  store i32 1, ptr %12, align 4
  br label %66

19:                                               ; preds = %4
  %20 = load ptr, ptr %11, align 8, !tbaa !13
  %21 = getelementptr inbounds i8, ptr %20, i64 0
  %22 = load i8, ptr %21, align 1, !tbaa !84
  %23 = zext i8 %22 to i32
  %24 = shl i32 %23, 24
  %25 = load ptr, ptr %11, align 8, !tbaa !13
  %26 = getelementptr inbounds i8, ptr %25, i64 1
  %27 = load i8, ptr %26, align 1, !tbaa !84
  %28 = zext i8 %27 to i32
  %29 = shl i32 %28, 16
  %30 = or i32 %24, %29
  %31 = load ptr, ptr %11, align 8, !tbaa !13
  %32 = getelementptr inbounds i8, ptr %31, i64 2
  %33 = load i8, ptr %32, align 1, !tbaa !84
  %34 = zext i8 %33 to i32
  %35 = shl i32 %34, 8
  %36 = or i32 %30, %35
  %37 = load ptr, ptr %11, align 8, !tbaa !13
  %38 = getelementptr inbounds i8, ptr %37, i64 3
  %39 = load i8, ptr %38, align 1, !tbaa !84
  %40 = zext i8 %39 to i32
  %41 = or i32 %36, %40
  store i32 %41, ptr %10, align 4, !tbaa !3
  %42 = load ptr, ptr %11, align 8, !tbaa !13
  %43 = getelementptr inbounds i8, ptr %42, i64 4
  store ptr %43, ptr %11, align 8, !tbaa !13
  %44 = load ptr, ptr %6, align 8, !tbaa !15
  %45 = load i32, ptr %7, align 4, !tbaa !3
  %46 = call i32 @BIO_indent(ptr noundef %44, i32 noundef %45, i32 noundef 80)
  %47 = load ptr, ptr %6, align 8, !tbaa !15
  %48 = call i32 @BIO_puts(ptr noundef %47, ptr noundef @.str.65)
  %49 = load ptr, ptr %6, align 8, !tbaa !15
  %50 = load i32, ptr %7, align 4, !tbaa !3
  %51 = add nsw i32 %50, 2
  %52 = call i32 @BIO_indent(ptr noundef %49, i32 noundef %51, i32 noundef 80)
  %53 = load ptr, ptr %6, align 8, !tbaa !15
  %54 = load i32, ptr %10, align 4, !tbaa !3
  %55 = call i32 (ptr, ptr, ...) @BIO_printf(ptr noundef %53, ptr noundef @.str.66, i32 noundef %54)
  %56 = load ptr, ptr %6, align 8, !tbaa !15
  %57 = load i32, ptr %7, align 4, !tbaa !3
  %58 = add nsw i32 %57, 2
  %59 = load ptr, ptr %11, align 8, !tbaa !13
  call void @ssl_print_hex(ptr noundef %56, i32 noundef %58, ptr noundef @.str.67, ptr noundef %59, i64 noundef 28)
  %60 = load ptr, ptr %8, align 8, !tbaa !98
  %61 = load ptr, ptr %60, align 8, !tbaa !13
  %62 = getelementptr inbounds i8, ptr %61, i64 32
  store ptr %62, ptr %60, align 8, !tbaa !13
  %63 = load ptr, ptr %9, align 8, !tbaa !100
  %64 = load i64, ptr %63, align 8, !tbaa !9
  %65 = sub i64 %64, 32
  store i64 %65, ptr %63, align 8, !tbaa !9
  store i32 1, ptr %5, align 4
  store i32 1, ptr %12, align 4
  br label %66

66:                                               ; preds = %19, %18
  call void @llvm.lifetime.end.p0(i64 8, ptr %11) #3
  call void @llvm.lifetime.end.p0(i64 4, ptr %10) #3
  %67 = load i32, ptr %5, align 4
  ret i32 %67
}