; Function Attrs: nounwind uwtable
define internal fastcc range(i32 0, 2) i32 @ssl_print_random(ptr noundef %0, ptr noundef nonnull captures(none) %1, ptr noundef nonnull captures(none) %2) unnamed_addr #0 {
  %4 = load i64, ptr %2, align 8, !tbaa !84
  %5 = icmp ult i64 %4, 32
  br i1 %5, label %42, label %6

6:                                                ; preds = %3
  %7 = load ptr, ptr %1, align 8, !tbaa !83
  %8 = load i8, ptr %7, align 1, !tbaa !75
  %9 = zext i8 %8 to i32
  %10 = shl nuw i32 %9, 24
  %11 = getelementptr inbounds nuw i8, ptr %7, i64 1
  %12 = load i8, ptr %11, align 1, !tbaa !75
  %13 = zext i8 %12 to i32
  %14 = shl nuw nsw i32 %13, 16
  %15 = or disjoint i32 %14, %10
  %16 = getelementptr inbounds nuw i8, ptr %7, i64 2
  %17 = load i8, ptr %16, align 1, !tbaa !75
  %18 = zext i8 %17 to i32
  %19 = shl nuw nsw i32 %18, 8
  %20 = or disjoint i32 %15, %19
  %21 = getelementptr inbounds nuw i8, ptr %7, i64 3
  %22 = load i8, ptr %21, align 1, !tbaa !75
  %23 = zext i8 %22 to i32
  %24 = or disjoint i32 %20, %23
  %25 = getelementptr inbounds nuw i8, ptr %7, i64 4
  %26 = tail call i32 @BIO_indent(ptr noundef %0, i32 noundef 6, i32 noundef 80) #3
  %27 = tail call i32 @BIO_puts(ptr noundef %0, ptr noundef nonnull @.str.65) #3
  %28 = tail call i32 @BIO_indent(ptr noundef %0, i32 noundef 8, i32 noundef 80) #3
  %29 = tail call i32 (ptr, ptr, ...) @BIO_printf(ptr noundef %0, ptr noundef nonnull @.str.66, i32 noundef %24) #3
  %30 = tail call i32 @BIO_indent(ptr noundef %0, i32 noundef 8, i32 noundef 80) #3
  %31 = tail call i32 (ptr, ptr, ...) @BIO_printf(ptr noundef %0, ptr noundef nonnull @.str.13, ptr noundef nonnull @.str.67, i32 noundef 28) #3
  br label %.lr.ph.i

.lr.ph.i:                                         ; preds = %.lr.ph.i, %6
  %.011.i = phi i64 [ %36, %.lr.ph.i ], [ 0, %6 ]
  %32 = getelementptr inbounds nuw i8, ptr %25, i64 %.011.i
  %33 = load i8, ptr %32, align 1, !tbaa !75
  %34 = zext i8 %33 to i32
  %35 = tail call i32 (ptr, ptr, ...) @BIO_printf(ptr noundef %0, ptr noundef nonnull @.str.14, i32 noundef %34) #3
  %36 = add nuw nsw i64 %.011.i, 1
  %exitcond.not.i = icmp eq i64 %36, 28
  br i1 %exitcond.not.i, label %ssl_print_hex.exit, label %.lr.ph.i, !llvm.loop !76

ssl_print_hex.exit:                               ; preds = %.lr.ph.i
  %37 = tail call i32 @BIO_puts(ptr noundef %0, ptr noundef nonnull @.str.12) #3
  %38 = load ptr, ptr %1, align 8, !tbaa !83
  %39 = getelementptr inbounds nuw i8, ptr %38, i64 32
  store ptr %39, ptr %1, align 8, !tbaa !83
  %40 = load i64, ptr %2, align 8, !tbaa !84
  %41 = add i64 %40, -32
  store i64 %41, ptr %2, align 8, !tbaa !84
  br label %42

42:                                               ; preds = %3, %ssl_print_hex.exit
  %.0 = phi i32 [ 1, %ssl_print_hex.exit ], [ 0, %3 ]
  ret i32 %.0
}